; Function Attrs: nounwind uwtable
define dso_local noundef i64 @json_string_to_tsvector(ptr noundef readonly captures(none) %0) local_unnamed_addr #0 {
  %2 = alloca %struct.TSVectorBuildState, align 8
  %3 = alloca %struct.ParsedText, align 8
  %4 = getelementptr inbounds nuw i8, ptr %0, i64 32
  %5 = load i64, ptr %4, align 8
  %6 = inttoptr i64 %5 to ptr
  %7 = tail call ptr @pg_detoast_datum(ptr noundef %6) #8
  %8 = tail call i32 @getTSCurrentConfig(i1 noundef zeroext true) #8
  call void @llvm.lifetime.start.p0(i64 16, ptr nonnull %2) #8
  call void @llvm.lifetime.start.p0(i64 24, ptr nonnull %3) #8
  store ptr null, ptr %3, align 8
  %9 = getelementptr inbounds nuw i8, ptr %3, i64 12
  store i32 0, ptr %9, align 4
  store ptr %3, ptr %2, align 8
  %10 = getelementptr inbounds nuw i8, ptr %2, i64 8
  store i32 %8, ptr %10, align 8
  call void @iterate_json_values(ptr noundef %7, i32 noundef 2, ptr noundef nonnull %2, ptr noundef nonnull @add_to_tsvector) #8
  %11 = call noundef ptr @make_tsvector(ptr noundef nonnull %3)
  call void @llvm.lifetime.end.p0(i64 24, ptr nonnull %3) #8
  call void @llvm.lifetime.end.p0(i64 16, ptr nonnull %2) #8
  %12 = load i64, ptr %4, align 8
  %13 = inttoptr i64 %12 to ptr
  %.not = icmp eq ptr %7, %13
  br i1 %.not, label %15, label %14

14:                                               ; preds = %1
  call void @pfree(ptr noundef %7) #8
  br label %15

15:                                               ; preds = %14, %1
  %16 = ptrtoint ptr %11 to i64
  ret i64 %16
}